; ModuleID = '21/1330.c'
source_filename = "21/1330.c"
target datalayout = "e-m:e-p270:32:32-p271:32:32-p272:64:64-i64:64-f80:128-n8:16:32:64-S128"
target triple = "x86_64-pc-linux-gnu"

@.str = private unnamed_addr constant [3 x i8] c"%d\00", align 1
@.str.1 = private unnamed_addr constant [6 x i8] c"%d,%d\00", align 1

; Function Attrs: noinline nounwind uwtable
define dso_local i32 @main() #0 {
  %1 = alloca i32, align 4
  %2 = alloca i32, align 4
  %3 = alloca i32, align 4
  %4 = alloca i32, align 4
  %5 = alloca [1000 x i32], align 16
  %6 = alloca i32, align 4
  %7 = alloca i32, align 4
  %8 = alloca double, align 8
  store i32 0, i32* %1, align 4
  store i32 0, i32* %6, align 4
  store double 0.000000e+00, double* %8, align 8
  %9 = call i32 (i8*, ...) @__isoc99_scanf(i8* getelementptr inbounds ([3 x i8], [3 x i8]* @.str, i64 0, i64 0), i32* %2)
  store i32 0, i32* %3, align 4
  br label %10

10:                                               ; preds = %25, %0
  %11 = load i32, i32* %3, align 4
  %12 = load i32, i32* %2, align 4
  %13 = icmp slt i32 %11, %12
  br i1 %13, label %14, label %28

14:                                               ; preds = %10
  %15 = load i32, i32* %3, align 4
  %16 = sext i32 %15 to i64
  %17 = getelementptr inbounds [1000 x i32], [1000 x i32]* %5, i64 0, i64 %16
  %18 = call i32 (i8*, ...) @__isoc99_scanf(i8* getelementptr inbounds ([3 x i8], [3 x i8]* @.str, i64 0, i64 0), i32* %17)
  %19 = load i32, i32* %3, align 4
  %20 = sext i32 %19 to i64
  %21 = getelementptr inbounds [1000 x i32], [1000 x i32]* %5, i64 0, i64 %20
  %22 = load i32, i32* %21, align 4
  %23 = load i32, i32* %6, align 4
  %24 = add nsw i32 %23, %22
  store i32 %24, i32* %6, align 4
  br label %25

25:                                               ; preds = %14
  %26 = load i32, i32* %3, align 4
  %27 = add nsw i32 %26, 1
  store i32 %27, i32* %3, align 4
  br label %10

28:                                               ; preds = %10
  %29 = load i32, i32* %6, align 4
  %30 = sitofp i32 %29 to double
  %31 = load i32, i32* %2, align 4
  %32 = sitofp i32 %31 to double
  %33 = fdiv double %30, %32
  store double %33, double* %8, align 8
  store i32 0, i32* %3, align 4
  br label %34

34:                                               ; preds = %79, %28
  %35 = load i32, i32* %3, align 4
  %36 = load i32, i32* %2, align 4
  %37 = icmp slt i32 %35, %36
  br i1 %37, label %38, label %82

38:                                               ; preds = %34
  %39 = load i32, i32* %2, align 4
  %40 = sub nsw i32 %39, 1
  store i32 %40, i32* %4, align 4
  br label %41

41:                                               ; preds = %75, %38
  %42 = load i32, i32* %4, align 4
  %43 = load i32, i32* %3, align 4
  %44 = icmp sgt i32 %42, %43
  br i1 %44, label %45, label %78

45:                                               ; preds = %41
  %46 = load i32, i32* %4, align 4
  %47 = sub nsw i32 %46, 1
  %48 = sext i32 %47 to i64
  %49 = getelementptr inbounds [1000 x i32], [1000 x i32]* %5, i64 0, i64 %48
  %50 = load i32, i32* %49, align 4
  %51 = load i32, i32* %4, align 4
  %52 = sext i32 %51 to i64
  %53 = getelementptr inbounds [1000 x i32], [1000 x i32]* %5, i64 0, i64 %52
  %54 = load i32, i32* %53, align 4
  %55 = icmp sgt i32 %50, %54
  br i1 %55, label %56, label %74

56:                                               ; preds = %45
  %57 = load i32, i32* %4, align 4
  %58 = sext i32 %57 to i64
  %59 = getelementptr inbounds [1000 x i32], [1000 x i32]* %5, i64 0, i64 %58
  %60 = load i32, i32* %59, align 4
  store i32 %60, i32* %7, align 4
  %61 = load i32, i32* %4, align 4
  %62 = sub nsw i32 %61, 1
  %63 = sext i32 %62 to i64
  %64 = getelementptr inbounds [1000 x i32], [1000 x i32]* %5, i64 0, i64 %63
  %65 = load i32, i32* %64, align 4
  %66 = load i32, i32* %4, align 4
  %67 = sext i32 %66 to i64
  %68 = getelementptr inbounds [1000 x i32], [1000 x i32]* %5, i64 0, i64 %67
  store i32 %65, i32* %68, align 4
  %69 = load i32, i32* %7, align 4
  %70 = load i32, i32* %4, align 4
  %71 = sub nsw i32 %70, 1
  %72 = sext i32 %71 to i64
  %73 = getelementptr inbounds [1000 x i32], [1000 x i32]* %5, i64 0, i64 %72
  store i32 %69, i32* %73, align 4
  br label %74

74:                                               ; preds = %56, %45
  br label %75

75:                                               ; preds = %74
  %76 = load i32, i32* %4, align 4
  %77 = add nsw i32 %76, -1
  store i32 %77, i32* %4, align 4
  br label %41

78:                                               ; preds = %41
  br label %79

79:                                               ; preds = %78
  %80 = load i32, i32* %3, align 4
  %81 = add nsw i32 %80, 1
  store i32 %81, i32* %3, align 4
  br label %34

82:                                               ; preds = %34
  %83 = load i32, i32* %2, align 4
  %84 = sub nsw i32 %83, 1
  %85 = sext i32 %84 to i64
  %86 = getelementptr inbounds [1000 x i32], [1000 x i32]* %5, i64 0, i64 %85
  %87 = load i32, i32* %86, align 4
  %88 = sitofp i32 %87 to double
  %89 = load double, double* %8, align 8
  %90 = fsub double %88, %89
  %91 = load double, double* %8, align 8
  %92 = getelementptr inbounds [1000 x i32], [1000 x i32]* %5, i64 0, i64 0
  %93 = load i32, i32* %92, align 16
  %94 = sitofp i32 %93 to double
  %95 = fsub double %91, %94
  %96 = fcmp oeq double %90, %95
  br i1 %96, label %97, label %106

97:                                               ; preds = %82
  %98 = getelementptr inbounds [1000 x i32], [1000 x i32]* %5, i64 0, i64 0
  %99 = load i32, i32* %98, align 16
  %100 = load i32, i32* %2, align 4
  %101 = sub nsw i32 %100, 1
  %102 = sext i32 %101 to i64
  %103 = getelementptr inbounds [1000 x i32], [1000 x i32]* %5, i64 0, i64 %102
  %104 = load i32, i32* %103, align 4
  %105 = call i32 (i8*, ...) @printf(i8* getelementptr inbounds ([6 x i8], [6 x i8]* @.str.1, i64 0, i64 0), i32 %99, i32 %104)
  br label %149

106:                                              ; preds = %82
  %107 = load i32, i32* %2, align 4
  %108 = sub nsw i32 %107, 1
  %109 = sext i32 %108 to i64
  %110 = getelementptr inbounds [1000 x i32], [1000 x i32]* %5, i64 0, i64 %109
  %111 = load i32, i32* %110, align 4
  %112 = sitofp i32 %111 to double
  %113 = load double, double* %8, align 8
  %114 = fsub double %112, %113
  %115 = load double, double* %8, align 8
  %116 = getelementptr inbounds [1000 x i32], [1000 x i32]* %5, i64 0, i64 0
  %117 = load i32, i32* %116, align 16
  %118 = sitofp i32 %117 to double
  %119 = fsub double %115, %118
  %120 = fcmp ogt double %114, %119
  br i1 %120, label %121, label %128

121:                                              ; preds = %106
  %122 = load i32, i32* %2, align 4
  %123 = sub nsw i32 %122, 1
  %124 = sext i32 %123 to i64
  %125 = getelementptr inbounds [1000 x i32], [1000 x i32]* %5, i64 0, i64 %124
  %126 = load i32, i32* %125, align 4
  %127 = call i32 (i8*, ...) @printf(i8* getelementptr inbounds ([3 x i8], [3 x i8]* @.str, i64 0, i64 0), i32 %126)
  br label %148

128:                                              ; preds = %106
  %129 = load i32, i32* %2, align 4
  %130 = sub nsw i32 %129, 1
  %131 = sext i32 %130 to i64
  %132 = getelementptr inbounds [1000 x i32], [1000 x i32]* %5, i64 0, i64 %131
  %133 = load i32, i32* %132, align 4
  %134 = sitofp i32 %133 to double
  %135 = load double, double* %8, align 8
  %136 = fsub double %134, %135
  %137 = load double, double* %8, align 8
  %138 = getelementptr inbounds [1000 x i32], [1000 x i32]* %5, i64 0, i64 0
  %139 = load i32, i32* %138, align 16
  %140 = sitofp i32 %139 to double
  %141 = fsub double %137, %140
  %142 = fcmp olt double %136, %141
  br i1 %142, label %143, label %147

143:                                              ; preds = %128
  %144 = getelementptr inbounds [1000 x i32], [1000 x i32]* %5, i64 0, i64 0
  %145 = load i32, i32* %144, align 16
  %146 = call i32 (i8*, ...) @printf(i8* getelementptr inbounds ([3 x i8], [3 x i8]* @.str, i64 0, i64 0), i32 %145)
  br label %147

147:                                              ; preds = %143, %128
  br label %148

148:                                              ; preds = %147, %121
  br label %149

149:                                              ; preds = %148, %97
  ret i32 0
}

declare dso_local i32 @__isoc99_scanf(i8*, ...) #1

declare dso_local i32 @printf(i8*, ...) #1


!llvm.module.flags = !{!0}
!llvm.ident = !{!1}

!0 = !{i32 1, !"wchar_size", i32 4}
!1 = !{!"clang version 10.0.0-4ubuntu1 "}
